; Function Attrs: mustprogress uwtable
define dso_local noundef zeroext i1 @_ZN5ImGui11SmallButtonEPKc(ptr noundef %0) local_unnamed_addr #5 {
  %2 = alloca %struct.ImVec2, align 4
  %3 = load ptr, ptr @GImGui, align 8, !tbaa !4
  %4 = getelementptr inbounds nuw i8, ptr %3, i64 3080
  %5 = load float, ptr %4, align 4, !tbaa !211
  store float 0.000000e+00, ptr %4, align 4, !tbaa !211
  call void @llvm.lifetime.start.p0(i64 8, ptr nonnull %2) #43
  store float 0.000000e+00, ptr %2, align 4, !tbaa !158
  %6 = getelementptr inbounds nuw i8, ptr %2, i64 4
  store float 0.000000e+00, ptr %6, align 4, !tbaa !159
  %7 = call noundef zeroext i1 @_ZN5ImGui8ButtonExEPKcRK6ImVec2i(ptr noundef %0, ptr noundef nonnull align 4 dereferenceable(8) %2, i32 noundef 32768)
  call void @llvm.lifetime.end.p0(i64 8, ptr nonnull %2) #43
  store float %5, ptr %4, align 4, !tbaa !211
  ret i1 %7
}